target datalayout = "e-m:e-p270:32:32-p271:32:32-p272:64:64-i64:64-i128:128-f80:128-n8:16:32:64-S128"
target triple = "x86_64-pc-linux-gnu"

%struct.grpc_completion_queue = type <{ %"class.grpc_core::RefCount", [64 x i8], ptr, [64 x i8], ptr, [64 x i8], ptr, %struct.grpc_closure, i32, [4 x i8] }>
%"class.grpc_core::RefCount" = type { %"struct.std::atomic" }
%"struct.std::atomic" = type { %"struct.std::__atomic_base" }
%"struct.std::__atomic_base" = type { i64 }
%struct.grpc_closure = type { %union.anon, ptr, ptr, %union.anon.10 }
%union.anon = type { ptr }
%union.anon.10 = type { i64 }

; Function Attrs: mustprogress uwtable
define noundef i32 @_Z20grpc_get_cq_poll_numP21grpc_completion_queue(ptr noundef %0) #6 {
  %2 = alloca ptr, align 8
  %3 = alloca i32, align 4
  store ptr %0, ptr %2, align 8, !tbaa !3
  call void @llvm.lifetime.start.p0(i64 4, ptr %3) #3
  %4 = load ptr, ptr %2, align 8, !tbaa !3
  %5 = getelementptr inbounds nuw %struct.grpc_completion_queue, ptr %4, i32 0, i32 2
  %6 = load ptr, ptr %5, align 8, !tbaa !26
  call void @gpr_mu_lock(ptr noundef %6)
  %7 = load ptr, ptr %2, align 8, !tbaa !3
  %8 = getelementptr inbounds nuw %struct.grpc_completion_queue, ptr %7, i32 0, i32 8
  %9 = load i32, ptr %8, align 8, !tbaa !112
  store i32 %9, ptr %3, align 4, !tbaa !14
  %10 = load ptr, ptr %2, align 8, !tbaa !3
  %11 = getelementptr inbounds nuw %struct.grpc_completion_queue, ptr %10, i32 0, i32 2
  %12 = load ptr, ptr %11, align 8, !tbaa !26
  call void @gpr_mu_unlock(ptr noundef %12)
  %13 = load i32, ptr %3, align 4, !tbaa !14
  call void @llvm.lifetime.end.p0(i64 4, ptr %3) #3
  ret i32 %13
}