; Function Attrs: mustprogress uwtable
define noundef i32 @_Z20grpc_get_cq_poll_numP21grpc_completion_queue(ptr noundef readonly captures(none) %0) local_unnamed_addr #8 {
  %2 = getelementptr inbounds nuw i8, ptr %0, i64 72
  %3 = load ptr, ptr %2, align 8, !tbaa !39
  tail call void @gpr_mu_lock(ptr noundef %3)
  %4 = getelementptr inbounds nuw i8, ptr %0, i64 256
  %5 = load i32, ptr %4, align 8, !tbaa !92
  %6 = load ptr, ptr %2, align 8, !tbaa !39
  tail call void @gpr_mu_unlock(ptr noundef %6)
  ret i32 %5
}